target datalayout = "e-m:e-p270:32:32-p271:32:32-p272:64:64-i64:64-i128:128-f80:128-n8:16:32:64-S128"
target triple = "x86_64-pc-linux-gnu"

%struct.hb_font_funcs_t = type { %struct.hb_object_header_t, ptr, ptr, %"union.hb_font_funcs_t::get_t" }
%struct.hb_object_header_t = type { %struct.hb_reference_count_t, %struct.hb_atomic_int_t, %struct.hb_atomic_ptr_t }
%struct.hb_reference_count_t = type { %struct.hb_atomic_int_t }
%struct.hb_atomic_int_t = type { i32 }
%struct.hb_atomic_ptr_t = type { ptr }
%"union.hb_font_funcs_t::get_t" = type { %"struct.hb_font_funcs_t::get_t::get_funcs_t" }
%"struct.hb_font_funcs_t::get_t::get_funcs_t" = type { ptr, ptr, ptr, ptr, ptr, ptr, ptr, ptr, ptr, ptr, ptr, ptr, ptr, ptr, ptr, ptr, ptr, ptr, ptr }
%struct.anon = type { ptr, ptr, ptr, ptr, ptr, ptr, ptr, ptr, ptr, ptr, ptr, ptr, ptr, ptr, ptr, ptr, ptr, ptr, ptr }
%struct.anon.0 = type { ptr, ptr, ptr, ptr, ptr, ptr, ptr, ptr, ptr, ptr, ptr, ptr, ptr, ptr, ptr, ptr, ptr, ptr, ptr }

; Function Attrs: mustprogress nounwind uwtable
define linkonce_odr hidden noundef i32 @_ZNK15hb_atomic_int_t11get_relaxedEv(ptr noundef nonnull align 4 dereferenceable(4) %0) #1 comdat align 2 {
  %2 = alloca ptr, align 8
  %3 = alloca i32, align 4
  store ptr %0, ptr %2, align 8
  %4 = load ptr, ptr %2, align 8
  %5 = getelementptr inbounds %struct.hb_atomic_int_t, ptr %4, i32 0, i32 0
  %6 = load atomic i32, ptr %5 monotonic, align 4
  store i32 %6, ptr %3, align 4
  %7 = load i32, ptr %3, align 4
  ret i32 %7
}

; Function Attrs: mustprogress uwtable
define linkonce_odr hidden noundef i32 @_ZNK15hb_atomic_int_tcviEv(ptr noundef nonnull align 4 dereferenceable(4) %0) #0 comdat align 2 {
  %2 = alloca ptr, align 8
  store ptr %0, ptr %2, align 8
  %3 = load ptr, ptr %2, align 8
  %4 = call noundef i32 @_ZNK15hb_atomic_int_t11get_relaxedEv(ptr noundef nonnull align 4 dereferenceable(4) %3)
  ret i32 %4
}

; Function Attrs: mustprogress uwtable
define internal noundef zeroext i1 @_ZL22hb_object_is_immutableI15hb_font_funcs_tEbPKT_(ptr noundef %0) #0 {
  %2 = alloca ptr, align 8
  store ptr %0, ptr %2, align 8
  %3 = load ptr, ptr %2, align 8
  %4 = getelementptr inbounds %struct.hb_font_funcs_t, ptr %3, i32 0, i32 0
  %5 = getelementptr inbounds %struct.hb_object_header_t, ptr %4, i32 0, i32 1
  %6 = call noundef i32 @_ZNK15hb_atomic_int_tcviEv(ptr noundef nonnull align 4 dereferenceable(4) %5)
  %7 = icmp ne i32 %6, 0
  %8 = xor i1 %7, true
  ret i1 %8
}

; Function Attrs: mustprogress uwtable
define internal noundef zeroext i1 @_ZL25_hb_font_funcs_set_middleP15hb_font_funcs_tPvPFvS1_E(ptr noundef %0, ptr noundef %1, ptr noundef %2) #0 {
  %4 = alloca i1, align 1
  %5 = alloca ptr, align 8
  %6 = alloca ptr, align 8
  %7 = alloca ptr, align 8
  store ptr %0, ptr %5, align 8
  store ptr %1, ptr %6, align 8
  store ptr %2, ptr %7, align 8
  %8 = load ptr, ptr %6, align 8
  %9 = icmp ne ptr %8, null
  br i1 %9, label %10, label %25

10:                                               ; preds = %3
  %11 = load ptr, ptr %5, align 8
  %12 = getelementptr inbounds %struct.hb_font_funcs_t, ptr %11, i32 0, i32 1
  %13 = load ptr, ptr %12, align 8
  %14 = icmp ne ptr %13, null
  br i1 %14, label %25, label %15

15:                                               ; preds = %10
  %16 = call noalias ptr @calloc(i64 noundef 1, i64 noundef 152) #11
  %17 = load ptr, ptr %5, align 8
  %18 = getelementptr inbounds %struct.hb_font_funcs_t, ptr %17, i32 0, i32 1
  store ptr %16, ptr %18, align 8
  %19 = load ptr, ptr %5, align 8
  %20 = getelementptr inbounds %struct.hb_font_funcs_t, ptr %19, i32 0, i32 1
  %21 = load ptr, ptr %20, align 8
  %22 = icmp ne ptr %21, null
  br i1 %22, label %24, label %23

23:                                               ; preds = %15
  br label %44

24:                                               ; preds = %15
  br label %25

25:                                               ; preds = %24, %10, %3
  %26 = load ptr, ptr %7, align 8
  %27 = icmp ne ptr %26, null
  br i1 %27, label %28, label %43

28:                                               ; preds = %25
  %29 = load ptr, ptr %5, align 8
  %30 = getelementptr inbounds %struct.hb_font_funcs_t, ptr %29, i32 0, i32 2
  %31 = load ptr, ptr %30, align 8
  %32 = icmp ne ptr %31, null
  br i1 %32, label %43, label %33

33:                                               ; preds = %28
  %34 = call noalias ptr @calloc(i64 noundef 1, i64 noundef 152) #11
  %35 = load ptr, ptr %5, align 8
  %36 = getelementptr inbounds %struct.hb_font_funcs_t, ptr %35, i32 0, i32 2
  store ptr %34, ptr %36, align 8
  %37 = load ptr, ptr %5, align 8
  %38 = getelementptr inbounds %struct.hb_font_funcs_t, ptr %37, i32 0, i32 2
  %39 = load ptr, ptr %38, align 8
  %40 = icmp ne ptr %39, null
  br i1 %40, label %42, label %41

41:                                               ; preds = %33
  br label %44

42:                                               ; preds = %33
  br label %43

43:                                               ; preds = %42, %28, %25
  store i1 true, ptr %4, align 1
  br label %51

44:                                               ; preds = %41, %23
  %45 = load ptr, ptr %7, align 8
  %46 = icmp ne ptr %45, null
  br i1 %46, label %47, label %50

47:                                               ; preds = %44
  %48 = load ptr, ptr %7, align 8
  %49 = load ptr, ptr %6, align 8
  call void %48(ptr noundef %49)
  br label %50

50:                                               ; preds = %47, %44
  store i1 false, ptr %4, align 1
  br label %51

51:                                               ; preds = %50, %43
  %52 = load i1, ptr %4, align 1
  ret i1 %52
}

; Function Attrs: mustprogress uwtable
define internal noundef zeroext i1 @_ZL27_hb_font_funcs_set_preambleP15hb_font_funcs_tbPPvPPFvS1_E(ptr noundef %0, i1 noundef zeroext %1, ptr noundef %2, ptr noundef %3) #0 {
  %5 = alloca i1, align 1
  %6 = alloca ptr, align 8
  %7 = alloca i8, align 1
  %8 = alloca ptr, align 8
  %9 = alloca ptr, align 8
  store ptr %0, ptr %6, align 8
  %10 = zext i1 %1 to i8
  store i8 %10, ptr %7, align 1
  store ptr %2, ptr %8, align 8
  store ptr %3, ptr %9, align 8
  %11 = load ptr, ptr %6, align 8
  %12 = call noundef zeroext i1 @_ZL22hb_object_is_immutableI15hb_font_funcs_tEbPKT_(ptr noundef %11)
  br i1 %12, label %13, label %23

13:                                               ; preds = %4
  %14 = load ptr, ptr %9, align 8
  %15 = load ptr, ptr %14, align 8
  %16 = icmp ne ptr %15, null
  br i1 %16, label %17, label %22

17:                                               ; preds = %13
  %18 = load ptr, ptr %9, align 8
  %19 = load ptr, ptr %18, align 8
  %20 = load ptr, ptr %8, align 8
  %21 = load ptr, ptr %20, align 8
  call void %19(ptr noundef %21)
  br label %22

22:                                               ; preds = %17, %13
  store i1 false, ptr %5, align 1
  br label %39

23:                                               ; preds = %4
  %24 = load i8, ptr %7, align 1
  %25 = trunc i8 %24 to i1
  br i1 %25, label %26, label %38

26:                                               ; preds = %23
  %27 = load ptr, ptr %9, align 8
  %28 = load ptr, ptr %27, align 8
  %29 = icmp ne ptr %28, null
  br i1 %29, label %30, label %35

30:                                               ; preds = %26
  %31 = load ptr, ptr %9, align 8
  %32 = load ptr, ptr %31, align 8
  %33 = load ptr, ptr %8, align 8
  %34 = load ptr, ptr %33, align 8
  call void %32(ptr noundef %34)
  br label %35

35:                                               ; preds = %30, %26
  %36 = load ptr, ptr %9, align 8
  store ptr null, ptr %36, align 8
  %37 = load ptr, ptr %8, align 8
  store ptr null, ptr %37, align 8
  br label %38

38:                                               ; preds = %35, %23
  store i1 true, ptr %5, align 1
  br label %39

39:                                               ; preds = %38, %22
  %40 = load i1, ptr %5, align 1
  ret i1 %40
}

; Function Attrs: mustprogress uwtable
define hidden void @hb_font_funcs_set_glyph_h_origin_func(ptr noundef %0, ptr noundef %1, ptr noundef %2, ptr noundef %3) #0 {
  %5 = alloca ptr, align 8
  %6 = alloca ptr, align 8
  %7 = alloca ptr, align 8
  %8 = alloca ptr, align 8
  store ptr %0, ptr %5, align 8
  store ptr %1, ptr %6, align 8
  store ptr %2, ptr %7, align 8
  store ptr %3, ptr %8, align 8
  %9 = load ptr, ptr %5, align 8
  %10 = load ptr, ptr %6, align 8
  %11 = icmp ne ptr %10, null
  %12 = xor i1 %11, true
  %13 = call noundef zeroext i1 @_ZL27_hb_font_funcs_set_preambleP15hb_font_funcs_tbPPvPPFvS1_E(ptr noundef %9, i1 noundef zeroext %12, ptr noundef %7, ptr noundef %8)
  br i1 %13, label %15, label %14

14:                                               ; preds = %4
  br label %86

15:                                               ; preds = %4
  %16 = load ptr, ptr %5, align 8
  %17 = getelementptr inbounds %struct.hb_font_funcs_t, ptr %16, i32 0, i32 2
  %18 = load ptr, ptr %17, align 8
  %19 = icmp ne ptr %18, null
  br i1 %19, label %20, label %46

20:                                               ; preds = %15
  %21 = load ptr, ptr %5, align 8
  %22 = getelementptr inbounds %struct.hb_font_funcs_t, ptr %21, i32 0, i32 2
  %23 = load ptr, ptr %22, align 8
  %24 = getelementptr inbounds %struct.anon, ptr %23, i32 0, i32 9
  %25 = load ptr, ptr %24, align 8
  %26 = icmp ne ptr %25, null
  br i1 %26, label %27, label %46

27:                                               ; preds = %20
  %28 = load ptr, ptr %5, align 8
  %29 = getelementptr inbounds %struct.hb_font_funcs_t, ptr %28, i32 0, i32 2
  %30 = load ptr, ptr %29, align 8
  %31 = getelementptr inbounds %struct.anon, ptr %30, i32 0, i32 9
  %32 = load ptr, ptr %31, align 8
  %33 = load ptr, ptr %5, align 8
  %34 = getelementptr inbounds %struct.hb_font_funcs_t, ptr %33, i32 0, i32 1
  %35 = load ptr, ptr %34, align 8
  %36 = icmp ne ptr %35, null
  br i1 %36, label %38, label %37

37:                                               ; preds = %27
  br label %44

38:                                               ; preds = %27
  %39 = load ptr, ptr %5, align 8
  %40 = getelementptr inbounds %struct.hb_font_funcs_t, ptr %39, i32 0, i32 1
  %41 = load ptr, ptr %40, align 8
  %42 = getelementptr inbounds %struct.anon.0, ptr %41, i32 0, i32 9
  %43 = load ptr, ptr %42, align 8
  br label %44

44:                                               ; preds = %38, %37
  %45 = phi ptr [ null, %37 ], [ %43, %38 ]
  call void %32(ptr noundef %45)
  br label %46

46:                                               ; preds = %44, %20, %15
  %47 = load ptr, ptr %5, align 8
  %48 = load ptr, ptr %7, align 8
  %49 = load ptr, ptr %8, align 8
  %50 = call noundef zeroext i1 @_ZL25_hb_font_funcs_set_middleP15hb_font_funcs_tPvPFvS1_E(ptr noundef %47, ptr noundef %48, ptr noundef %49)
  br i1 %50, label %52, label %51

51:                                               ; preds = %46
  br label %86

52:                                               ; preds = %46
  %53 = load ptr, ptr %6, align 8
  %54 = icmp ne ptr %53, null
  br i1 %54, label %55, label %60

55:                                               ; preds = %52
  %56 = load ptr, ptr %6, align 8
  %57 = load ptr, ptr %5, align 8
  %58 = getelementptr inbounds %struct.hb_font_funcs_t, ptr %57, i32 0, i32 3
  %59 = getelementptr inbounds %"struct.hb_font_funcs_t::get_t::get_funcs_t", ptr %58, i32 0, i32 9
  store ptr %56, ptr %59, align 8
  br label %64

60:                                               ; preds = %52
  %61 = load ptr, ptr %5, align 8
  %62 = getelementptr inbounds %struct.hb_font_funcs_t, ptr %61, i32 0, i32 3
  %63 = getelementptr inbounds %"struct.hb_font_funcs_t::get_t::get_funcs_t", ptr %62, i32 0, i32 9
  store ptr @_ZL34hb_font_get_glyph_h_origin_defaultP9hb_font_tPvjPiS2_S1_, ptr %63, align 8
  br label %64

64:                                               ; preds = %60, %55
  %65 = load ptr, ptr %5, align 8
  %66 = getelementptr inbounds %struct.hb_font_funcs_t, ptr %65, i32 0, i32 1
  %67 = load ptr, ptr %66, align 8
  %68 = icmp ne ptr %67, null
  br i1 %68, label %69, label %75

69:                                               ; preds = %64
  %70 = load ptr, ptr %7, align 8
  %71 = load ptr, ptr %5, align 8
  %72 = getelementptr inbounds %struct.hb_font_funcs_t, ptr %71, i32 0, i32 1
  %73 = load ptr, ptr %72, align 8
  %74 = getelementptr inbounds %struct.anon.0, ptr %73, i32 0, i32 9
  store ptr %70, ptr %74, align 8
  br label %75

75:                                               ; preds = %69, %64
  %76 = load ptr, ptr %5, align 8
  %77 = getelementptr inbounds %struct.hb_font_funcs_t, ptr %76, i32 0, i32 2
  %78 = load ptr, ptr %77, align 8
  %79 = icmp ne ptr %78, null
  br i1 %79, label %80, label %86

80:                                               ; preds = %75
  %81 = load ptr, ptr %8, align 8
  %82 = load ptr, ptr %5, align 8
  %83 = getelementptr inbounds %struct.hb_font_funcs_t, ptr %82, i32 0, i32 2
  %84 = load ptr, ptr %83, align 8
  %85 = getelementptr inbounds %struct.anon, ptr %84, i32 0, i32 9
  store ptr %81, ptr %85, align 8
  br label %86

86:                                               ; preds = %80, %75, %51, %14
  ret void
}